target datalayout = "e-m:e-p270:32:32-p271:32:32-p272:64:64-i64:64-i128:128-f80:128-n8:16:32:64-S128"
target triple = "x86_64-unknown-linux-gnu"

@.str.6 = private unnamed_addr constant [22 x i8] c"qemu_in_main_thread()\00", align 1
@.str.7 = private unnamed_addr constant [25 x i8] c"../qemu/block/snapshot.c\00", align 1
@__PRETTY_FUNCTION__.bdrv_snapshot_load_tmp_by_id_or_name = private unnamed_addr constant [85 x i8] c"int bdrv_snapshot_load_tmp_by_id_or_name(BlockDriverState *, const char *, Error **)\00", align 1

; Function Attrs: nounwind sspstrong uwtable
define dso_local i32 @bdrv_snapshot_load_tmp_by_id_or_name(ptr noundef %bs, ptr noundef %id_or_name, ptr noundef %errp) #0 {
entry:
  %bs.addr = alloca ptr, align 8
  %id_or_name.addr = alloca ptr, align 8
  %errp.addr = alloca ptr, align 8
  %ret = alloca i32, align 4
  %local_err = alloca ptr, align 8
  store ptr %bs, ptr %bs.addr, align 8
  store ptr %id_or_name, ptr %id_or_name.addr, align 8
  store ptr %errp, ptr %errp.addr, align 8
  store ptr null, ptr %local_err, align 8
  br label %do.body

do.body:                                          ; preds = %entry
  %call = call zeroext i1 @qemu_in_main_thread()
  br i1 %call, label %if.then, label %if.else

if.then:                                          ; preds = %do.body
  br label %if.end

if.else:                                          ; preds = %do.body
  call void @__assert_fail(ptr noundef @.str.6, ptr noundef @.str.7, i32 noundef 465, ptr noundef @__PRETTY_FUNCTION__.bdrv_snapshot_load_tmp_by_id_or_name) #6
  unreachable

if.end:                                           ; preds = %if.then
  br label %do.end

do.end:                                           ; preds = %if.end
  %0 = load ptr, ptr %bs.addr, align 8
  %1 = load ptr, ptr %id_or_name.addr, align 8
  %call1 = call i32 @bdrv_snapshot_load_tmp(ptr noundef %0, ptr noundef %1, ptr noundef null, ptr noundef %local_err)
  store i32 %call1, ptr %ret, align 4
  %2 = load i32, ptr %ret, align 4
  %cmp = icmp eq i32 %2, -2
  br i1 %cmp, label %if.then3, label %lor.lhs.false

lor.lhs.false:                                    ; preds = %do.end
  %3 = load i32, ptr %ret, align 4
  %cmp2 = icmp eq i32 %3, -22
  br i1 %cmp2, label %if.then3, label %if.end5

if.then3:                                         ; preds = %lor.lhs.false, %do.end
  %4 = load ptr, ptr %local_err, align 8
  call void @error_free(ptr noundef %4)
  store ptr null, ptr %local_err, align 8
  %5 = load ptr, ptr %bs.addr, align 8
  %6 = load ptr, ptr %id_or_name.addr, align 8
  %call4 = call i32 @bdrv_snapshot_load_tmp(ptr noundef %5, ptr noundef null, ptr noundef %6, ptr noundef %local_err)
  store i32 %call4, ptr %ret, align 4
  br label %if.end5

if.end5:                                          ; preds = %if.then3, %lor.lhs.false
  %7 = load ptr, ptr %errp.addr, align 8
  %8 = load ptr, ptr %local_err, align 8
  call void @error_propagate(ptr noundef %7, ptr noundef %8)
  %9 = load i32, ptr %ret, align 4
  ret i32 %9
}