; Function Attrs: nounwind sspstrong uwtable
define dso_local i32 @bdrv_snapshot_load_tmp_by_id_or_name(ptr noundef %bs, ptr noundef %id_or_name, ptr noundef %errp) local_unnamed_addr #0 {
entry:
  %local_err = alloca ptr, align 8
  store ptr null, ptr %local_err, align 8
  %call = tail call zeroext i1 @qemu_in_main_thread() #6
  br i1 %call, label %do.end, label %if.else

if.else:                                          ; preds = %entry
  tail call void @__assert_fail(ptr noundef nonnull @.str.6, ptr noundef nonnull @.str.7, i32 noundef 465, ptr noundef nonnull @__PRETTY_FUNCTION__.bdrv_snapshot_load_tmp_by_id_or_name) #7
  unreachable

do.end:                                           ; preds = %entry
  %call1 = call i32 @bdrv_snapshot_load_tmp(ptr noundef %bs, ptr noundef %id_or_name, ptr noundef null, ptr noundef nonnull %local_err)
  switch i32 %call1, label %if.end5 [
    i32 -2, label %if.then3
    i32 -22, label %if.then3
  ]

if.then3:                                         ; preds = %do.end, %do.end
  %0 = load ptr, ptr %local_err, align 8
  call void @error_free(ptr noundef %0) #6
  store ptr null, ptr %local_err, align 8
  %call4 = call i32 @bdrv_snapshot_load_tmp(ptr noundef %bs, ptr noundef null, ptr noundef %id_or_name, ptr noundef nonnull %local_err)
  br label %if.end5

if.end5:                                          ; preds = %do.end, %if.then3
  %ret.0 = phi i32 [ %call4, %if.then3 ], [ %call1, %do.end ]
  %1 = load ptr, ptr %local_err, align 8
  call void @error_propagate(ptr noundef %errp, ptr noundef %1) #6
  ret i32 %ret.0
}